target datalayout = "e-m:e-p270:32:32-p271:32:32-p272:64:64-i64:64-i128:128-f80:128-n8:16:32:64-S128"
target triple = "x86_64-unknown-linux-gnu"

%"class.std::__cxx11::basic_string" = type { %"struct.std::__cxx11::basic_string<char>::_Alloc_hider", i64, %union.anon }
%"struct.std::__cxx11::basic_string<char>::_Alloc_hider" = type { ptr }
%union.anon = type { i64, [8 x i8] }
%"class.Assimp::DXF::LineReader" = type <{ %"class.Assimp::LineSplitter", i32, [4 x i8], %"class.std::__cxx11::basic_string", i32, [4 x i8] }>
%"class.Assimp::LineSplitter" = type <{ i64, %"class.std::__cxx11::basic_string", ptr, i8, i8, i8, [5 x i8] }>
%"struct.Assimp::DXF::FileData" = type { %"class.std::vector.4" }
%"class.std::vector.4" = type { %"struct.std::_Vector_base.5" }
%"struct.std::_Vector_base.5" = type { %"struct.std::_Vector_base<Assimp::DXF::Block, std::allocator<Assimp::DXF::Block>>::_Vector_impl" }
%"struct.std::_Vector_base<Assimp::DXF::Block, std::allocator<Assimp::DXF::Block>>::_Vector_impl" = type { %"struct.std::_Vector_base<Assimp::DXF::Block, std::allocator<Assimp::DXF::Block>>::_Vector_impl_data" }
%"struct.std::_Vector_base<Assimp::DXF::Block, std::allocator<Assimp::DXF::Block>>::_Vector_impl_data" = type { ptr, ptr, ptr }

@.str.3 = private unnamed_addr constant [7 x i8] c"ENDSEC\00", align 1
@.str.32 = private unnamed_addr constant [6 x i8] c"BLOCK\00", align 1
@.str.33 = private unnamed_addr constant [10 x i8] c"DXF: got \00", align 1
@.str.34 = private unnamed_addr constant [19 x i8] c" entries in BLOCKS\00", align 1

; Function Attrs: mustprogress nounwind uwtable
define linkonce_odr hidden noundef zeroext i1 @_ZNK6Assimp3DXF10LineReadercvbEv(ptr noundef nonnull align 8 dereferenceable(100) %this) #0 comdat align 2 {
entry:
  %this.addr = alloca ptr, align 8
  store ptr %this, ptr %this.addr, align 8
  %this1 = load ptr, ptr %this.addr, align 8
  %end = getelementptr inbounds %"class.Assimp::DXF::LineReader", ptr %this1, i32 0, i32 4
  %0 = load i32, ptr %end, align 8
  %cmp = icmp sle i32 %0, 1
  ret i1 %cmp
}

; Function Attrs: mustprogress nounwind uwtable
define linkonce_odr hidden noundef i64 @_ZNKSt6vectorIN6Assimp3DXF5BlockESaIS2_EE4sizeEv(ptr noundef nonnull align 8 dereferenceable(24) %this) #0 comdat align 2 {
entry:
  %this.addr = alloca ptr, align 8
  store ptr %this, ptr %this.addr, align 8
  %this1 = load ptr, ptr %this.addr, align 8
  %_M_impl = getelementptr inbounds %"struct.std::_Vector_base.5", ptr %this1, i32 0, i32 0
  %_M_finish = getelementptr inbounds %"struct.std::_Vector_base<Assimp::DXF::Block, std::allocator<Assimp::DXF::Block>>::_Vector_impl_data", ptr %_M_impl, i32 0, i32 1
  %0 = load ptr, ptr %_M_finish, align 8
  %_M_impl2 = getelementptr inbounds %"struct.std::_Vector_base.5", ptr %this1, i32 0, i32 0
  %_M_start = getelementptr inbounds %"struct.std::_Vector_base<Assimp::DXF::Block, std::allocator<Assimp::DXF::Block>>::_Vector_impl_data", ptr %_M_impl2, i32 0, i32 0
  %1 = load ptr, ptr %_M_start, align 8
  %sub.ptr.lhs.cast = ptrtoint ptr %0 to i64
  %sub.ptr.rhs.cast = ptrtoint ptr %1 to i64
  %sub.ptr.sub = sub i64 %sub.ptr.lhs.cast, %sub.ptr.rhs.cast
  %sub.ptr.div = sdiv exact i64 %sub.ptr.sub, 96
  ret i64 %sub.ptr.div
}

; Function Attrs: mustprogress nounwind uwtable
define linkonce_odr hidden noundef zeroext i1 @_ZNK6Assimp3DXF10LineReader2IsEiPKc(ptr noundef nonnull align 8 dereferenceable(100) %this, i32 noundef %gc, ptr noundef %what) #0 comdat align 2 {
entry:
  %this.addr = alloca ptr, align 8
  %gc.addr = alloca i32, align 4
  %what.addr = alloca ptr, align 8
  store ptr %this, ptr %this.addr, align 8
  store i32 %gc, ptr %gc.addr, align 4
  store ptr %what, ptr %what.addr, align 8
  %this1 = load ptr, ptr %this.addr, align 8
  %groupcode = getelementptr inbounds %"class.Assimp::DXF::LineReader", ptr %this1, i32 0, i32 1
  %0 = load i32, ptr %groupcode, align 8
  %1 = load i32, ptr %gc.addr, align 4
  %cmp = icmp eq i32 %0, %1
  br i1 %cmp, label %land.rhs, label %land.end

land.rhs:                                         ; preds = %entry
  %2 = load ptr, ptr %what.addr, align 8
  %value = getelementptr inbounds %"class.Assimp::DXF::LineReader", ptr %this1, i32 0, i32 3
  %call = call noundef ptr @_ZNKSt7__cxx1112basic_stringIcSt11char_traitsIcESaIcEE5c_strEv(ptr noundef nonnull align 8 dereferenceable(32) %value) #17
  %call2 = call i32 @strcmp(ptr noundef %2, ptr noundef %call) #19
  %tobool = icmp ne i32 %call2, 0
  %lnot = xor i1 %tobool, true
  br label %land.end

land.end:                                         ; preds = %land.rhs, %entry
  %3 = phi i1 [ false, %entry ], [ %lnot, %land.rhs ]
  ret i1 %3
}

; Function Attrs: mustprogress uwtable
define linkonce_odr hidden noundef zeroext i1 @_ZNK6Assimp3DXF10LineReader3EndEv(ptr noundef nonnull align 8 dereferenceable(100) %this) #3 comdat align 2 {
entry:
  %this.addr = alloca ptr, align 8
  store ptr %this, ptr %this.addr, align 8
  %this1 = load ptr, ptr %this.addr, align 8
  %call = call noundef zeroext i1 @_ZNK6Assimp3DXF10LineReadercvbEv(ptr noundef nonnull align 8 dereferenceable(100) %this1)
  %lnot = xor i1 %call, true
  ret i1 %lnot
}

; Function Attrs: mustprogress uwtable
define hidden void @_ZN6Assimp11DXFImporter11ParseBlocksERNS_3DXF10LineReaderERNS1_8FileDataE(ptr noundef nonnull align 8 dereferenceable(72) %this, ptr noundef nonnull align 8 dereferenceable(100) %reader, ptr noundef nonnull align 8 dereferenceable(24) %output) #3 align 2 {
entry:
  %this.addr = alloca ptr, align 8
  %reader.addr = alloca ptr, align 8
  %output.addr = alloca ptr, align 8
  %ref.tmp = alloca i64, align 8
  store ptr %this, ptr %this.addr, align 8
  store ptr %reader, ptr %reader.addr, align 8
  store ptr %output, ptr %output.addr, align 8
  %this1 = load ptr, ptr %this.addr, align 8
  br label %while.cond

while.cond:                                       ; preds = %if.end, %if.then, %entry
  %0 = load ptr, ptr %reader.addr, align 8
  %call = call noundef zeroext i1 @_ZNK6Assimp3DXF10LineReader3EndEv(ptr noundef nonnull align 8 dereferenceable(100) %0)
  br i1 %call, label %land.end, label %land.rhs

land.rhs:                                         ; preds = %while.cond
  %1 = load ptr, ptr %reader.addr, align 8
  %call2 = call noundef zeroext i1 @_ZNK6Assimp3DXF10LineReader2IsEiPKc(ptr noundef nonnull align 8 dereferenceable(100) %1, i32 noundef 0, ptr noundef @.str.3)
  %lnot = xor i1 %call2, true
  br label %land.end

land.end:                                         ; preds = %land.rhs, %while.cond
  %2 = phi i1 [ false, %while.cond ], [ %lnot, %land.rhs ]
  br i1 %2, label %while.body, label %while.end

while.body:                                       ; preds = %land.end
  %3 = load ptr, ptr %reader.addr, align 8
  %call3 = call noundef zeroext i1 @_ZNK6Assimp3DXF10LineReader2IsEiPKc(ptr noundef nonnull align 8 dereferenceable(100) %3, i32 noundef 0, ptr noundef @.str.32)
  br i1 %call3, label %if.then, label %if.end

if.then:                                          ; preds = %while.body
  %4 = load ptr, ptr %reader.addr, align 8
  %call4 = call noundef nonnull align 8 dereferenceable(100) ptr @_ZN6Assimp3DXF10LineReaderppEv(ptr noundef nonnull align 8 dereferenceable(100) %4)
  %5 = load ptr, ptr %output.addr, align 8
  call void @_ZN6Assimp11DXFImporter10ParseBlockERNS_3DXF10LineReaderERNS1_8FileDataE(ptr noundef nonnull align 8 dereferenceable(72) %this1, ptr noundef nonnull align 8 dereferenceable(100) %call4, ptr noundef nonnull align 8 dereferenceable(24) %5)
  br label %while.cond, !llvm.loop !6

if.end:                                           ; preds = %while.body
  %6 = load ptr, ptr %reader.addr, align 8
  %call5 = call noundef nonnull align 8 dereferenceable(100) ptr @_ZN6Assimp3DXF10LineReaderppEv(ptr noundef nonnull align 8 dereferenceable(100) %6)
  br label %while.cond, !llvm.loop !6

while.end:                                        ; preds = %land.end
  %call6 = call noundef ptr @_ZN6Assimp13DefaultLogger3getEv()
  %7 = load ptr, ptr %output.addr, align 8
  %blocks = getelementptr inbounds %"struct.Assimp::DXF::FileData", ptr %7, i32 0, i32 0
  %call7 = call noundef i64 @_ZNKSt6vectorIN6Assimp3DXF5BlockESaIS2_EE4sizeEv(ptr noundef nonnull align 8 dereferenceable(24) %blocks) #17
  store i64 %call7, ptr %ref.tmp, align 8
  call void @_ZN6Assimp6Logger12verboseDebugIJRA10_KcmRA19_S2_EEEvDpOT_(ptr noundef nonnull align 8 dereferenceable(12) %call6, ptr noundef nonnull align 1 dereferenceable(10) @.str.33, ptr noundef nonnull align 8 dereferenceable(8) %ref.tmp, ptr noundef nonnull align 1 dereferenceable(19) @.str.34)
  ret void
}