; Function Attrs: mustprogress uwtable
define hidden void @_ZN6Assimp11DXFImporter11ParseBlocksERNS_3DXF10LineReaderERNS1_8FileDataE(ptr nocapture noundef nonnull readnone align 8 dereferenceable(72) %this, ptr noundef nonnull align 8 dereferenceable(100) %reader, ptr noundef nonnull align 8 dereferenceable(24) %output) local_unnamed_addr #0 align 2 {
entry:
  %ref.tmp = alloca i64, align 8
  %value.i = getelementptr inbounds i8, ptr %reader, i64 64
  %end.i.i = getelementptr inbounds i8, ptr %reader, i64 96
  %0 = load i32, ptr %end.i.i, align 8
  %cmp.i.i15 = icmp sgt i32 %0, 1
  br i1 %cmp.i.i15, label %while.end, label %land.rhs.lr.ph

land.rhs.lr.ph:                                   ; preds = %entry
  %groupcode.i = getelementptr inbounds i8, ptr %reader, i64 56
  br label %land.rhs

land.rhs:                                         ; preds = %land.rhs.lr.ph, %while.cond.backedge
  %1 = load i32, ptr %groupcode.i, align 8
  %cmp.i = icmp eq i32 %1, 0
  br i1 %cmp.i, label %_ZNK6Assimp3DXF10LineReader2IsEiPKc.exit, label %if.end

_ZNK6Assimp3DXF10LineReader2IsEiPKc.exit:         ; preds = %land.rhs
  %call.i = tail call noundef ptr @_ZNKSt7__cxx1112basic_stringIcSt11char_traitsIcESaIcEE5c_strEv(ptr noundef nonnull align 8 dereferenceable(32) %value.i) #20
  %call2.i = tail call i32 @strcmp(ptr noundef nonnull dereferenceable(7) @.str.3, ptr noundef nonnull dereferenceable(1) %call.i) #24
  %tobool.not.i = icmp eq i32 %call2.i, 0
  br i1 %tobool.not.i, label %while.end, label %while.body

while.body:                                       ; preds = %_ZNK6Assimp3DXF10LineReader2IsEiPKc.exit
  %.pr = load i32, ptr %groupcode.i, align 8
  %cmp.i7 = icmp eq i32 %.pr, 0
  br i1 %cmp.i7, label %_ZNK6Assimp3DXF10LineReader2IsEiPKc.exit13, label %if.end

_ZNK6Assimp3DXF10LineReader2IsEiPKc.exit13:       ; preds = %while.body
  %call.i10 = tail call noundef ptr @_ZNKSt7__cxx1112basic_stringIcSt11char_traitsIcESaIcEE5c_strEv(ptr noundef nonnull align 8 dereferenceable(32) %value.i) #20
  %call2.i11 = tail call i32 @strcmp(ptr noundef nonnull dereferenceable(6) @.str.32, ptr noundef nonnull dereferenceable(1) %call.i10) #24
  %tobool.not.i12 = icmp eq i32 %call2.i11, 0
  br i1 %tobool.not.i12, label %if.then, label %if.end

if.then:                                          ; preds = %_ZNK6Assimp3DXF10LineReader2IsEiPKc.exit13
  %call4 = tail call noundef nonnull align 8 dereferenceable(100) ptr @_ZN6Assimp3DXF10LineReaderppEv(ptr noundef nonnull align 8 dereferenceable(100) %reader)
  tail call void @_ZN6Assimp11DXFImporter10ParseBlockERNS_3DXF10LineReaderERNS1_8FileDataE(ptr noundef nonnull align 8 dereferenceable(72) %this, ptr noundef nonnull align 8 dereferenceable(100) %call4, ptr noundef nonnull align 8 dereferenceable(24) %output)
  br label %while.cond.backedge

while.cond.backedge:                              ; preds = %if.then, %if.end
  %2 = load i32, ptr %end.i.i, align 8
  %cmp.i.i = icmp sgt i32 %2, 1
  br i1 %cmp.i.i, label %while.end, label %land.rhs, !llvm.loop !9

if.end:                                           ; preds = %land.rhs, %while.body, %_ZNK6Assimp3DXF10LineReader2IsEiPKc.exit13
  %call5 = tail call noundef nonnull align 8 dereferenceable(100) ptr @_ZN6Assimp3DXF10LineReaderppEv(ptr noundef nonnull align 8 dereferenceable(100) %reader)
  br label %while.cond.backedge

while.end:                                        ; preds = %_ZNK6Assimp3DXF10LineReader2IsEiPKc.exit, %while.cond.backedge, %entry
  %call6 = tail call noundef ptr @_ZN6Assimp13DefaultLogger3getEv()
  %_M_finish.i = getelementptr inbounds i8, ptr %output, i64 8
  %3 = load ptr, ptr %_M_finish.i, align 8
  %4 = load ptr, ptr %output, align 8
  %sub.ptr.lhs.cast.i = ptrtoint ptr %3 to i64
  %sub.ptr.rhs.cast.i = ptrtoint ptr %4 to i64
  %sub.ptr.sub.i = sub i64 %sub.ptr.lhs.cast.i, %sub.ptr.rhs.cast.i
  %sub.ptr.div.i = sdiv exact i64 %sub.ptr.sub.i, 96
  store i64 %sub.ptr.div.i, ptr %ref.tmp, align 8
  call void @_ZN6Assimp6Logger12verboseDebugIJRA10_KcmRA19_S2_EEEvDpOT_(ptr noundef nonnull align 8 dereferenceable(12) %call6, ptr noundef nonnull align 1 dereferenceable(10) @.str.33, ptr noundef nonnull align 8 dereferenceable(8) %ref.tmp, ptr noundef nonnull align 1 dereferenceable(19) @.str.34)
  ret void
}